(dp0
S'ABACINATION'
p1
S'A*bac'
p2
sS'AARD-WOLF'
p3
S'Aard"-wolf'
p4
sS'ABACK'
p5
S'A*back"'
p6
sS'AAM'
p7
S'Aam'
p8
sS'A-'
p9
S'A-'
p10
sS'ABACA'
p11
S'Ab"a*ca'
p12
sS'ABADA'
p13
S'Ab"a*da'
p14
sS'ABADDON'
p15
S'A*bad"don'
p16
sS'AB'
p17
S'Ab'
p18
sS'ABACUS'
p19
S'Ab"a*cus'
p20
sS'"A'
p21
S"God's"
p22
sS'AARD-VARK'
p23
S'Aard"-vark'
p24
sS'LL'
p25
S'ama'
p26
sS'OHG'
p27
S'ga-'
p28
sS'ROD'
p29
S'Aar"on\'s'
p30
sS'AB-'
p31
S'Ab-'
p32
sS'ABACTINAL'
p33
S'Ab*ac"ti*nal'
p34
sS'A'
p35
g35
sS'C'
p36
S'or'
p37
sS'B'
p38
S'--'
p39
sS'E'
p40
S'un-'
p41
sS'D'
p42
S'aam'
p43
sS'G'
p44
g35
sS'I'
p45
S'a'
p46
sS'L'
p47
S'per'
p48
sS'O'
p49
S'fair'
p50
sS'ABACINATE'
p51
S'A*bac"i*nate'
p52
sS'ABACIST'
p53
S'Ab"a*cist'
p54
sS'AS'
p55
S'an'
p56
sS'R'
p57
g1
sS'W'
p58
S'Smith'
p59
sS'AARONICAL'
p60
S'Aa*ron"ic'
p61
sS'ABACTOR'
p62
S'Ab*ac"tor'
p63
sS'ABACISCUS'
p64
S'Ab'
p65
sS'AARONIC'
p66
g60
sS'ABACULUS'
p67
S'A*bac"u*lus'
p68
sS"AARON'S"
p69
g29
sS'ABACTION'
p70
S'Ab*ac"tion'
p71
s.